target datalayout = "e-m:e-p270:32:32-p271:32:32-p272:64:64-i64:64-i128:128-f80:128-n8:16:32:64-S128"
target triple = "x86_64-pc-linux-gnu"

%struct.asn1_string_st = type { i32, i32, ptr, i64 }

@.str = private unnamed_addr constant [31 x i8] c"../openssl/crypto/asn1/a_int.c\00", align 1
@__func__.asn1_string_get_uint64 = private unnamed_addr constant [23 x i8] c"asn1_string_get_uint64\00", align 1
@__func__.asn1_get_uint64 = private unnamed_addr constant [16 x i8] c"asn1_get_uint64\00", align 1

; Function Attrs: nounwind uwtable
define internal i32 @asn1_get_uint64(ptr noundef %0, ptr noundef %1, i64 noundef %2) #0 {
  %4 = alloca i32, align 4
  %5 = alloca ptr, align 8
  %6 = alloca ptr, align 8
  %7 = alloca i64, align 8
  %8 = alloca i64, align 8
  %9 = alloca i64, align 8
  %10 = alloca i32, align 4
  store ptr %0, ptr %5, align 8, !tbaa !28
  store ptr %1, ptr %6, align 8, !tbaa !18
  store i64 %2, ptr %7, align 8, !tbaa !19
  call void @llvm.lifetime.start.p0(i64 8, ptr %8) #4
  call void @llvm.lifetime.start.p0(i64 8, ptr %9) #4
  %11 = load i64, ptr %7, align 8, !tbaa !19
  %12 = icmp ugt i64 %11, 8
  br i1 %12, label %13, label %14

13:                                               ; preds = %3
  call void @ERR_new()
  call void @ERR_set_debug(ptr noundef @.str, i32 noundef 219, ptr noundef @__func__.asn1_get_uint64)
  call void (i32, i32, ptr, ...) @ERR_set_error(i32 noundef 13, i32 noundef 223, ptr noundef null)
  store i32 0, ptr %4, align 4
  store i32 1, ptr %10, align 4
  br label %39

14:                                               ; preds = %3
  %15 = load ptr, ptr %6, align 8, !tbaa !18
  %16 = icmp eq ptr %15, null
  br i1 %16, label %17, label %18

17:                                               ; preds = %14
  store i32 0, ptr %4, align 4
  store i32 1, ptr %10, align 4
  br label %39

18:                                               ; preds = %14
  store i64 0, ptr %9, align 8, !tbaa !19
  store i64 0, ptr %8, align 8, !tbaa !19
  br label %19

19:                                               ; preds = %33, %18
  %20 = load i64, ptr %8, align 8, !tbaa !19
  %21 = load i64, ptr %7, align 8, !tbaa !19
  %22 = icmp ult i64 %20, %21
  br i1 %22, label %23, label %36

23:                                               ; preds = %19
  %24 = load i64, ptr %9, align 8, !tbaa !19
  %25 = shl i64 %24, 8
  store i64 %25, ptr %9, align 8, !tbaa !19
  %26 = load ptr, ptr %6, align 8, !tbaa !18
  %27 = load i64, ptr %8, align 8, !tbaa !19
  %28 = getelementptr inbounds nuw i8, ptr %26, i64 %27
  %29 = load i8, ptr %28, align 1, !tbaa !20
  %30 = zext i8 %29 to i64
  %31 = load i64, ptr %9, align 8, !tbaa !19
  %32 = or i64 %31, %30
  store i64 %32, ptr %9, align 8, !tbaa !19
  br label %33

33:                                               ; preds = %23
  %34 = load i64, ptr %8, align 8, !tbaa !19
  %35 = add i64 %34, 1
  store i64 %35, ptr %8, align 8, !tbaa !19
  br label %19, !llvm.loop !32

36:                                               ; preds = %19
  %37 = load i64, ptr %9, align 8, !tbaa !19
  %38 = load ptr, ptr %5, align 8, !tbaa !28
  store i64 %37, ptr %38, align 8, !tbaa !19
  store i32 1, ptr %4, align 4
  store i32 1, ptr %10, align 4
  br label %39

39:                                               ; preds = %36, %17, %13
  call void @llvm.lifetime.end.p0(i64 8, ptr %9) #4
  call void @llvm.lifetime.end.p0(i64 8, ptr %8) #4
  %40 = load i32, ptr %4, align 4
  ret i32 %40
}

; Function Attrs: nounwind uwtable
define internal i32 @asn1_string_get_uint64(ptr noundef %0, ptr noundef %1, i32 noundef %2) #0 {
  %4 = alloca i32, align 4
  %5 = alloca ptr, align 8
  %6 = alloca ptr, align 8
  %7 = alloca i32, align 4
  store ptr %0, ptr %5, align 8, !tbaa !28
  store ptr %1, ptr %6, align 8, !tbaa !3
  store i32 %2, ptr %7, align 4, !tbaa !13
  %8 = load ptr, ptr %6, align 8, !tbaa !3
  %9 = icmp eq ptr %8, null
  br i1 %9, label %10, label %11

10:                                               ; preds = %3
  call void @ERR_new()
  call void @ERR_set_debug(ptr noundef @.str, i32 noundef 372, ptr noundef @__func__.asn1_string_get_uint64)
  call void (i32, i32, ptr, ...) @ERR_set_error(i32 noundef 13, i32 noundef 786690, ptr noundef null)
  store i32 0, ptr %4, align 4
  br label %36

11:                                               ; preds = %3
  %12 = load ptr, ptr %6, align 8, !tbaa !3
  %13 = getelementptr inbounds nuw %struct.asn1_string_st, ptr %12, i32 0, i32 1
  %14 = load i32, ptr %13, align 4, !tbaa !8
  %15 = and i32 %14, -257
  %16 = load i32, ptr %7, align 4, !tbaa !13
  %17 = icmp ne i32 %15, %16
  br i1 %17, label %18, label %19

18:                                               ; preds = %11
  call void @ERR_new()
  call void @ERR_set_debug(ptr noundef @.str, i32 noundef 376, ptr noundef @__func__.asn1_string_get_uint64)
  call void (i32, i32, ptr, ...) @ERR_set_error(i32 noundef 13, i32 noundef 225, ptr noundef null)
  store i32 0, ptr %4, align 4
  br label %36

19:                                               ; preds = %11
  %20 = load ptr, ptr %6, align 8, !tbaa !3
  %21 = getelementptr inbounds nuw %struct.asn1_string_st, ptr %20, i32 0, i32 1
  %22 = load i32, ptr %21, align 4, !tbaa !8
  %23 = and i32 %22, 256
  %24 = icmp ne i32 %23, 0
  br i1 %24, label %25, label %26

25:                                               ; preds = %19
  call void @ERR_new()
  call void @ERR_set_debug(ptr noundef @.str, i32 noundef 380, ptr noundef @__func__.asn1_string_get_uint64)
  call void (i32, i32, ptr, ...) @ERR_set_error(i32 noundef 13, i32 noundef 226, ptr noundef null)
  store i32 0, ptr %4, align 4
  br label %36

26:                                               ; preds = %19
  %27 = load ptr, ptr %5, align 8, !tbaa !28
  %28 = load ptr, ptr %6, align 8, !tbaa !3
  %29 = getelementptr inbounds nuw %struct.asn1_string_st, ptr %28, i32 0, i32 2
  %30 = load ptr, ptr %29, align 8, !tbaa !16
  %31 = load ptr, ptr %6, align 8, !tbaa !3
  %32 = getelementptr inbounds nuw %struct.asn1_string_st, ptr %31, i32 0, i32 0
  %33 = load i32, ptr %32, align 8, !tbaa !17
  %34 = sext i32 %33 to i64
  %35 = call i32 @asn1_get_uint64(ptr noundef %27, ptr noundef %30, i64 noundef %34)
  store i32 %35, ptr %4, align 4
  br label %36

36:                                               ; preds = %26, %25, %18, %10
  %37 = load i32, ptr %4, align 4
  ret i32 %37
}

; Function Attrs: nounwind uwtable
define i32 @ASN1_INTEGER_get_uint64(ptr noundef %0, ptr noundef %1) #0 {
  %3 = alloca ptr, align 8
  %4 = alloca ptr, align 8
  store ptr %0, ptr %3, align 8, !tbaa !28
  store ptr %1, ptr %4, align 8, !tbaa !3
  %5 = load ptr, ptr %3, align 8, !tbaa !28
  %6 = load ptr, ptr %4, align 8, !tbaa !3
  %7 = call i32 @asn1_string_get_uint64(ptr noundef %5, ptr noundef %6, i32 noundef 2)
  ret i32 %7
}