; Function Attrs: nounwind uwtable
define range(i32 0, 2) i32 @ASN1_INTEGER_get_uint64(ptr noundef writeonly captures(none) %0, ptr noundef readonly captures(address_is_null) %1) local_unnamed_addr #0 {
  %3 = icmp eq ptr %1, null
  br i1 %3, label %4, label %5

4:                                                ; preds = %2
  tail call void @ERR_new() #6
  tail call void @ERR_set_debug(ptr noundef nonnull @.str, i32 noundef 372, ptr noundef nonnull @__func__.asn1_string_get_uint64) #6
  tail call void (i32, i32, ptr, ...) @ERR_set_error(i32 noundef 13, i32 noundef 786690, ptr noundef null) #6
  br label %asn1_string_get_uint64.exit

5:                                                ; preds = %2
  %6 = getelementptr inbounds nuw i8, ptr %1, i64 4
  %7 = load i32, ptr %6, align 4, !tbaa !3
  %8 = and i32 %7, -257
  %.not.i = icmp eq i32 %8, 2
  br i1 %.not.i, label %10, label %9

9:                                                ; preds = %5
  tail call void @ERR_new() #6
  tail call void @ERR_set_debug(ptr noundef nonnull @.str, i32 noundef 376, ptr noundef nonnull @__func__.asn1_string_get_uint64) #6
  tail call void (i32, i32, ptr, ...) @ERR_set_error(i32 noundef 13, i32 noundef 225, ptr noundef null) #6
  br label %asn1_string_get_uint64.exit

10:                                               ; preds = %5
  %.not8.i = icmp samesign ult i32 %7, 256
  br i1 %.not8.i, label %12, label %11

11:                                               ; preds = %10
  tail call void @ERR_new() #6
  tail call void @ERR_set_debug(ptr noundef nonnull @.str, i32 noundef 380, ptr noundef nonnull @__func__.asn1_string_get_uint64) #6
  tail call void (i32, i32, ptr, ...) @ERR_set_error(i32 noundef 13, i32 noundef 226, ptr noundef null) #6
  br label %asn1_string_get_uint64.exit

12:                                               ; preds = %10
  %13 = getelementptr inbounds nuw i8, ptr %1, i64 8
  %14 = load ptr, ptr %13, align 8, !tbaa !11
  %15 = load i32, ptr %1, align 8, !tbaa !12
  %16 = sext i32 %15 to i64
  %17 = icmp ugt i32 %15, 8
  br i1 %17, label %18, label %19

18:                                               ; preds = %12
  tail call void @ERR_new() #6
  tail call void @ERR_set_debug(ptr noundef nonnull @.str, i32 noundef 219, ptr noundef nonnull @__func__.asn1_get_uint64) #6
  tail call void (i32, i32, ptr, ...) @ERR_set_error(i32 noundef 13, i32 noundef 223, ptr noundef null) #6
  br label %asn1_string_get_uint64.exit

19:                                               ; preds = %12
  %20 = icmp eq ptr %14, null
  br i1 %20, label %asn1_string_get_uint64.exit, label %.preheader.i.i

.preheader.i.i:                                   ; preds = %19
  %.not.i.i = icmp eq i32 %15, 0
  br i1 %.not.i.i, label %._crit_edge.i.i, label %.lr.ph.i.i

.lr.ph.i.i:                                       ; preds = %.preheader.i.i, %.lr.ph.i.i
  %.016.i.i = phi i64 [ %25, %.lr.ph.i.i ], [ 0, %.preheader.i.i ]
  %.01115.i.i = phi i64 [ %26, %.lr.ph.i.i ], [ 0, %.preheader.i.i ]
  %21 = shl i64 %.016.i.i, 8
  %22 = getelementptr inbounds nuw i8, ptr %14, i64 %.01115.i.i
  %23 = load i8, ptr %22, align 1, !tbaa !13
  %24 = zext i8 %23 to i64
  %25 = or disjoint i64 %21, %24
  %26 = add nuw nsw i64 %.01115.i.i, 1
  %exitcond.not.i.i = icmp eq i64 %26, %16
  br i1 %exitcond.not.i.i, label %._crit_edge.i.i, label %.lr.ph.i.i, !llvm.loop !23

._crit_edge.i.i:                                  ; preds = %.lr.ph.i.i, %.preheader.i.i
  %.0.lcssa.i.i = phi i64 [ 0, %.preheader.i.i ], [ %25, %.lr.ph.i.i ]
  store i64 %.0.lcssa.i.i, ptr %0, align 8, !tbaa !22
  br label %asn1_string_get_uint64.exit

asn1_string_get_uint64.exit:                      ; preds = %4, %9, %11, %18, %19, %._crit_edge.i.i
  %.0.i = phi i32 [ 0, %4 ], [ 0, %9 ], [ 0, %11 ], [ 0, %18 ], [ 1, %._crit_edge.i.i ], [ 0, %19 ]
  ret i32 %.0.i
}